Certificate:
    Data:
        Version: 3 (0x2)
        Serial Number: 5 (0x5)
    Signature Algorithm: ecdsa-with-SHA256
        Issuer: C=RU, ST=Russian Federation, L=Saint Petersburg, O=Yandex, OU=balancer/emailAddress=balancer-dev@yandex-team.ru
        Validity
            Not Before: Nov 29 17:04:08 2016 GMT
            Not After : Nov 29 17:04:08 3016 GMT
        Subject: C=RU, ST=Russian Federation, O=Yandex, OU=balancer, CN=client.yandex.ru/emailAddress=balancer-dev@yandex-team.ru
        Subject Public Key Info:
            Public Key Algorithm: id-ecPublicKey
                Public-Key: (256 bit)
                pub: 
                    04:55:56:35:b0:a6:52:d7:88:95:4b:71:bf:7a:61:
                    e9:08:d4:4c:f8:37:36:bc:d5:1f:77:29:de:75:a6:
                    7f:b9:64:88:0b:c1:db:16:8d:d4:00:31:7a:b1:1a:
                    fa:0e:00:6c:29:43:7e:59:c7:a2:d1:cb:7e:6a:ca:
                    83:0a:1f:ca:a3
                ASN1 OID: prime256v1
        X509v3 extensions:
            X509v3 Basic Constraints: 
                CA:FALSE
            Netscape Comment: 
                OpenSSL Generated Certificate
            X509v3 Subject Key Identifier: 
                35:F5:CB:22:C4:10:78:C3:0D:4B:6F:25:5B:5C:6E:CE:3F:80:C7:3B
            X509v3 Authority Key Identifier: 
                keyid:AF:CC:B8:5E:B5:63:5C:81:D2:57:FA:33:82:41:16:EF:76:DA:E5:69

            Authority Information Access: 
                OCSP - URI:http://localhost:11000

    Signature Algorithm: ecdsa-with-SHA256
         30:45:02:20:67:d5:f1:58:bb:95:0d:9a:54:cc:be:98:8a:81:
         4e:f9:d9:b6:73:54:3d:4c:46:ee:b5:2e:e4:63:6d:ba:60:a7:
         02:21:00:d6:d6:b3:7a:13:97:3e:21:8f:e6:b3:29:af:8f:7e:
         8f:20:c2:10:9c:16:8d:5a:50:f1:9f:1c:84:ac:3c:12:08
-----BEGIN CERTIFICATE-----
MIICzjCCAnSgAwIBAgIBBTAKBggqhkjOPQQDAjCBlTELMAkGA1UEBhMCUlUxGzAZ
BgNVBAgMElJ1c3NpYW4gRmVkZXJhdGlvbjEZMBcGA1UEBwwQU2FpbnQgUGV0ZXJz
YnVyZzEPMA0GA1UECgwGWWFuZGV4MREwDwYDVQQLDAhiYWxhbmNlcjEqMCgGCSqG
SIb3DQEJARYbYmFsYW5jZXItZGV2QHlhbmRleC10ZWFtLnJ1MCAXDTE2MTEyOTE3
MDQwOFoYDzMwMTYxMTI5MTcwNDA4WjCBlTELMAkGA1UEBhMCUlUxGzAZBgNVBAgM
ElJ1c3NpYW4gRmVkZXJhdGlvbjEPMA0GA1UECgwGWWFuZGV4MREwDwYDVQQLDAhi
YWxhbmNlcjEZMBcGA1UEAwwQY2xpZW50LnlhbmRleC5ydTEqMCgGCSqGSIb3DQEJ
ARYbYmFsYW5jZXItZGV2QHlhbmRleC10ZWFtLnJ1MFkwEwYHKoZIzj0CAQYIKoZI
zj0DAQcDQgAEVVY1sKZS14iVS3G/emHpCNRM+Dc2vNUfdynedaZ/uWSIC8HbFo3U
ADF6sRr6DgBsKUN+Wcei0ct+asqDCh/Ko6OBsDCBrTAJBgNVHRMEAjAAMCwGCWCG
SAGG+EIBDQQfFh1PcGVuU1NMIEdlbmVyYXRlZCBDZXJ0aWZpY2F0ZTAdBgNVHQ4E
FgQUNfXLIsQQeMMNS28lW1xuzj+AxzswHwYDVR0jBBgwFoAUr8y4XrVjXIHSV/oz
gkEW73ba5WkwMgYIKwYBBQUHAQEEJjAkMCIGCCsGAQUFBzABhhZodHRwOi8vbG9j
YWxob3N0OjExMDAwMAoGCCqGSM49BAMCA0gAMEUCIGfV8Vi7lQ2aVMy+mIqBTvnZ
tnNUPUxG7rUu5GNtumCnAiEA1tazehOXPiGP5rMpr49+jyDCEJwWjVpQ8Z8chKw8
Egg=
-----END CERTIFICATE-----
