Certificate:
    Data:
        Version: 3 (0x2)
        Serial Number: 2 (0x2)
    Signature Algorithm: ecdsa-with-SHA256
        Issuer: C=RU, ST=Russian Federation, L=Saint Petersburg, O=Yandex, OU=balancer/emailAddress=balancer-dev@yandex-team.ru
        Validity
            Not Before: Nov 29 17:04:08 2016 GMT
            Not After : Nov 29 17:04:08 3016 GMT
        Subject: C=RU, ST=Russian Federation, O=Yandex, OU=balancer, CN=default.yandex.ru/emailAddress=balancer-dev@yandex-team.ru
        Subject Public Key Info:
            Public Key Algorithm: id-ecPublicKey
                Public-Key: (256 bit)
                pub: 
                    04:41:6f:23:3b:7a:60:5e:d9:2e:22:8e:a5:67:3b:
                    55:49:6a:8b:6e:a7:61:90:a7:43:68:69:1b:be:24:
                    1f:51:f0:08:dd:9a:95:46:49:bb:36:e8:42:7d:c6:
                    fb:b3:f2:9b:32:90:86:d4:39:08:64:6d:a3:79:39:
                    1f:11:b8:ec:09
                ASN1 OID: prime256v1
        X509v3 extensions:
            X509v3 Basic Constraints: 
                CA:FALSE
            Netscape Comment: 
                OpenSSL Generated Certificate
            X509v3 Subject Key Identifier: 
                71:CF:09:95:58:72:02:82:2B:AE:49:5A:9D:0F:9E:6E:00:54:B6:CE
            X509v3 Authority Key Identifier: 
                keyid:AF:CC:B8:5E:B5:63:5C:81:D2:57:FA:33:82:41:16:EF:76:DA:E5:69

            Authority Information Access: 
                OCSP - URI:http://localhost:11000

    Signature Algorithm: ecdsa-with-SHA256
         30:45:02:20:3f:8c:a0:08:02:61:d9:a6:f1:c9:c7:31:40:4d:
         9e:28:38:cf:3d:12:5e:99:72:76:29:72:47:e3:64:2b:46:b4:
         02:21:00:f3:fd:1f:95:54:87:c5:21:7b:c2:95:ca:37:fa:f9:
         86:7c:f9:37:1f:1e:05:76:37:23:2f:2e:66:68:df:96:6f
-----BEGIN CERTIFICATE-----
MIICzzCCAnWgAwIBAgIBAjAKBggqhkjOPQQDAjCBlTELMAkGA1UEBhMCUlUxGzAZ
BgNVBAgMElJ1c3NpYW4gRmVkZXJhdGlvbjEZMBcGA1UEBwwQU2FpbnQgUGV0ZXJz
YnVyZzEPMA0GA1UECgwGWWFuZGV4MREwDwYDVQQLDAhiYWxhbmNlcjEqMCgGCSqG
SIb3DQEJARYbYmFsYW5jZXItZGV2QHlhbmRleC10ZWFtLnJ1MCAXDTE2MTEyOTE3
MDQwOFoYDzMwMTYxMTI5MTcwNDA4WjCBljELMAkGA1UEBhMCUlUxGzAZBgNVBAgM
ElJ1c3NpYW4gRmVkZXJhdGlvbjEPMA0GA1UECgwGWWFuZGV4MREwDwYDVQQLDAhi
YWxhbmNlcjEaMBgGA1UEAwwRZGVmYXVsdC55YW5kZXgucnUxKjAoBgkqhkiG9w0B
CQEWG2JhbGFuY2VyLWRldkB5YW5kZXgtdGVhbS5ydTBZMBMGByqGSM49AgEGCCqG
SM49AwEHA0IABEFvIzt6YF7ZLiKOpWc7VUlqi26nYZCnQ2hpG74kH1HwCN2alUZJ
uzboQn3G+7PymzKQhtQ5CGRto3k5HxG47AmjgbAwga0wCQYDVR0TBAIwADAsBglg
hkgBhvhCAQ0EHxYdT3BlblNTTCBHZW5lcmF0ZWQgQ2VydGlmaWNhdGUwHQYDVR0O
BBYEFHHPCZVYcgKCK65JWp0Pnm4AVLbOMB8GA1UdIwQYMBaAFK/MuF61Y1yB0lf6
M4JBFu922uVpMDIGCCsGAQUFBwEBBCYwJDAiBggrBgEFBQcwAYYWaHR0cDovL2xv
Y2FsaG9zdDoxMTAwMDAKBggqhkjOPQQDAgNIADBFAiA/jKAIAmHZpvHJxzFATZ4o
OM89El6ZcnYpckfjZCtGtAIhAPP9H5VUh8Uhe8KVyjf6+YZ8+TcfHgV2NyMvLmZo
35Zv
-----END CERTIFICATE-----
