Certificate:
    Data:
        Version: 3 (0x2)
        Serial Number: 3 (0x3)
    Signature Algorithm: ecdsa-with-SHA256
        Issuer: C=RU, ST=Russian Federation, L=Saint Petersburg, O=Yandex, OU=balancer/emailAddress=balancer-dev@yandex-team.ru
        Validity
            Not Before: Nov 29 17:04:08 2016 GMT
            Not After : Nov 29 17:04:08 3016 GMT
        Subject: C=RU, ST=Russian Federation, O=Yandex, OU=balancer, CN=detroit.yandex.ru/emailAddress=balancer-dev@yandex-team.ru
        Subject Public Key Info:
            Public Key Algorithm: id-ecPublicKey
                Public-Key: (256 bit)
                pub: 
                    04:75:c4:54:5d:6a:a0:ec:92:64:d4:38:d0:8f:0a:
                    cd:d7:8f:b9:00:f3:d8:39:71:5f:cd:e9:30:61:17:
                    31:56:e6:c4:46:de:15:36:ac:e0:c7:1d:65:58:42:
                    69:8f:24:6c:0c:4d:29:41:a4:fc:4d:52:37:c2:1f:
                    1a:9c:95:00:29
                ASN1 OID: prime256v1
        X509v3 extensions:
            X509v3 Basic Constraints: 
                CA:FALSE
            Netscape Comment: 
                OpenSSL Generated Certificate
            X509v3 Subject Key Identifier: 
                83:14:6C:A2:2C:AB:2A:95:BD:B3:08:DC:F4:3F:BC:9C:0A:2E:E8:40
            X509v3 Authority Key Identifier: 
                keyid:AF:CC:B8:5E:B5:63:5C:81:D2:57:FA:33:82:41:16:EF:76:DA:E5:69

            Authority Information Access: 
                OCSP - URI:http://localhost:11000

    Signature Algorithm: ecdsa-with-SHA256
         30:45:02:21:00:aa:56:1e:ac:21:9b:3a:3d:f5:e1:b1:c0:e2:
         f2:6f:c4:1c:6e:cc:f0:43:3d:ff:bc:93:03:0a:64:fa:7f:4a:
         9a:02:20:06:4c:59:5b:17:33:72:6e:43:93:d0:d4:35:fe:2b:
         58:fd:d2:96:6a:c7:28:ea:67:86:da:89:b5:1a:e7:d7:c5
-----BEGIN CERTIFICATE-----
MIICzzCCAnWgAwIBAgIBAzAKBggqhkjOPQQDAjCBlTELMAkGA1UEBhMCUlUxGzAZ
BgNVBAgMElJ1c3NpYW4gRmVkZXJhdGlvbjEZMBcGA1UEBwwQU2FpbnQgUGV0ZXJz
YnVyZzEPMA0GA1UECgwGWWFuZGV4MREwDwYDVQQLDAhiYWxhbmNlcjEqMCgGCSqG
SIb3DQEJARYbYmFsYW5jZXItZGV2QHlhbmRleC10ZWFtLnJ1MCAXDTE2MTEyOTE3
MDQwOFoYDzMwMTYxMTI5MTcwNDA4WjCBljELMAkGA1UEBhMCUlUxGzAZBgNVBAgM
ElJ1c3NpYW4gRmVkZXJhdGlvbjEPMA0GA1UECgwGWWFuZGV4MREwDwYDVQQLDAhi
YWxhbmNlcjEaMBgGA1UEAwwRZGV0cm9pdC55YW5kZXgucnUxKjAoBgkqhkiG9w0B
CQEWG2JhbGFuY2VyLWRldkB5YW5kZXgtdGVhbS5ydTBZMBMGByqGSM49AgEGCCqG
SM49AwEHA0IABHXEVF1qoOySZNQ40I8KzdePuQDz2DlxX83pMGEXMVbmxEbeFTas
4McdZVhCaY8kbAxNKUGk/E1SN8IfGpyVACmjgbAwga0wCQYDVR0TBAIwADAsBglg
hkgBhvhCAQ0EHxYdT3BlblNTTCBHZW5lcmF0ZWQgQ2VydGlmaWNhdGUwHQYDVR0O
BBYEFIMUbKIsqyqVvbMI3PQ/vJwKLuhAMB8GA1UdIwQYMBaAFK/MuF61Y1yB0lf6
M4JBFu922uVpMDIGCCsGAQUFBwEBBCYwJDAiBggrBgEFBQcwAYYWaHR0cDovL2xv
Y2FsaG9zdDoxMTAwMDAKBggqhkjOPQQDAgNIADBFAiEAqlYerCGbOj314bHA4vJv
xBxuzPBDPf+8kwMKZPp/SpoCIAZMWVsXM3JuQ5PQ1DX+K1j90pZqxyjqZ4baibUa
59fF
-----END CERTIFICATE-----
