Certificate:
    Data:
        Version: 3 (0x2)
        Serial Number: 7 (0x7)
    Signature Algorithm: ecdsa-with-SHA256
        Issuer: C=RU, ST=Russian Federation, L=Saint Petersburg, O=Yandex, OU=balancer/emailAddress=balancer-dev@yandex-team.ru
        Validity
            Not Before: Sep  9 01:46:40 2001 GMT
            Not After : Sep 10 01:46:40 2001 GMT
        Subject: C=RU, ST=Russian Federation, O=Yandex, OU=balancer, CN=expired.yandex.ru/emailAddress=balancer-dev@yandex-team.ru
        Subject Public Key Info:
            Public Key Algorithm: id-ecPublicKey
                Public-Key: (256 bit)
                pub: 
                    04:ea:f2:77:3d:00:96:88:fd:f2:ab:f0:3a:78:fb:
                    77:c4:65:b2:a9:36:3e:4b:62:19:54:c9:d4:79:e3:
                    78:a4:4d:36:ab:b1:bf:ec:0c:3c:56:a8:72:33:a5:
                    86:ce:88:a7:cb:2a:cf:3b:5b:2c:21:22:28:e7:ec:
                    c9:36:12:c1:2d
                ASN1 OID: prime256v1
        X509v3 extensions:
            X509v3 Basic Constraints: 
                CA:FALSE
            Netscape Comment: 
                OpenSSL Generated Certificate
            X509v3 Subject Key Identifier: 
                C0:AE:D6:3D:F9:F5:1D:BB:08:97:0A:E9:FE:7B:B6:70:15:6B:EA:A9
            X509v3 Authority Key Identifier: 
                keyid:AF:CC:B8:5E:B5:63:5C:81:D2:57:FA:33:82:41:16:EF:76:DA:E5:69

            Authority Information Access: 
                OCSP - URI:http://localhost:11000

    Signature Algorithm: ecdsa-with-SHA256
         30:45:02:21:00:af:12:05:d6:3d:a7:97:e1:c6:76:77:09:cd:
         70:2c:02:13:f0:69:1e:b5:8f:02:8c:2f:ec:0c:ce:92:de:40:
         79:02:20:2e:75:81:8c:71:34:58:39:cf:dd:11:3f:2b:18:06:
         ad:2c:01:56:2e:74:4e:62:ce:5b:56:63:c8:61:e9:88:55
-----BEGIN CERTIFICATE-----
MIICzTCCAnOgAwIBAgIBBzAKBggqhkjOPQQDAjCBlTELMAkGA1UEBhMCUlUxGzAZ
BgNVBAgMElJ1c3NpYW4gRmVkZXJhdGlvbjEZMBcGA1UEBwwQU2FpbnQgUGV0ZXJz
YnVyZzEPMA0GA1UECgwGWWFuZGV4MREwDwYDVQQLDAhiYWxhbmNlcjEqMCgGCSqG
SIb3DQEJARYbYmFsYW5jZXItZGV2QHlhbmRleC10ZWFtLnJ1MB4XDTAxMDkwOTAx
NDY0MFoXDTAxMDkxMDAxNDY0MFowgZYxCzAJBgNVBAYTAlJVMRswGQYDVQQIDBJS
dXNzaWFuIEZlZGVyYXRpb24xDzANBgNVBAoMBllhbmRleDERMA8GA1UECwwIYmFs
YW5jZXIxGjAYBgNVBAMMEWV4cGlyZWQueWFuZGV4LnJ1MSowKAYJKoZIhvcNAQkB
FhtiYWxhbmNlci1kZXZAeWFuZGV4LXRlYW0ucnUwWTATBgcqhkjOPQIBBggqhkjO
PQMBBwNCAATq8nc9AJaI/fKr8Dp4+3fEZbKpNj5LYhlUydR543ikTTarsb/sDDxW
qHIzpYbOiKfLKs87WywhIijn7Mk2EsEto4GwMIGtMAkGA1UdEwQCMAAwLAYJYIZI
AYb4QgENBB8WHU9wZW5TU0wgR2VuZXJhdGVkIENlcnRpZmljYXRlMB0GA1UdDgQW
BBTArtY9+fUduwiXCun+e7ZwFWvqqTAfBgNVHSMEGDAWgBSvzLhetWNcgdJX+jOC
QRbvdtrlaTAyBggrBgEFBQcBAQQmMCQwIgYIKwYBBQUHMAGGFmh0dHA6Ly9sb2Nh
bGhvc3Q6MTEwMDAwCgYIKoZIzj0EAwIDSAAwRQIhAK8SBdY9p5fhxnZ3Cc1wLAIT
8GketY8CjC/sDM6S3kB5AiAudYGMcTRYOc/dET8rGAatLAFWLnROYs5bVmPIYemI
VQ==
-----END CERTIFICATE-----
