Certificate:
    Data:
        Version: 3 (0x2)
        Serial Number: 8 (0x8)
    Signature Algorithm: ecdsa-with-SHA256
        Issuer: C=RU, ST=Russian Federation, L=Saint Petersburg, O=Yandex, OU=balancer/emailAddress=balancer-dev@yandex-team.ru
        Validity
            Not Before: Dec 30 23:59:59 2049 GMT
            Not After : Dec 31 23:59:59 2049 GMT
        Subject: C=RU, ST=Russian Federation, O=Yandex, OU=balancer, CN=future.yandex.ru/emailAddress=balancer-dev@yandex-team.ru
        Subject Public Key Info:
            Public Key Algorithm: id-ecPublicKey
                Public-Key: (256 bit)
                pub: 
                    04:3b:8b:54:c4:3e:8d:5a:6b:99:d2:e9:42:d4:bb:
                    24:e9:ed:88:41:0f:a0:1a:6d:38:95:0a:53:90:a8:
                    6d:e9:73:59:b0:d5:8d:73:53:f4:d8:5d:26:cd:22:
                    24:c7:d1:38:d4:68:16:be:ba:78:3b:9d:c6:87:4e:
                    60:eb:80:e2:ac
                ASN1 OID: prime256v1
        X509v3 extensions:
            X509v3 Basic Constraints: 
                CA:FALSE
            Netscape Comment: 
                OpenSSL Generated Certificate
            X509v3 Subject Key Identifier: 
                5B:7E:A4:69:7E:F4:95:D6:22:9B:6A:5E:47:B3:A9:CB:B4:CA:05:56
            X509v3 Authority Key Identifier: 
                keyid:AF:CC:B8:5E:B5:63:5C:81:D2:57:FA:33:82:41:16:EF:76:DA:E5:69

            Authority Information Access: 
                OCSP - URI:http://localhost:11000

    Signature Algorithm: ecdsa-with-SHA256
         30:44:02:20:25:19:fc:3a:47:b9:9b:c2:85:a5:7a:4a:47:fc:
         8b:54:dd:c2:7b:d4:26:e6:04:03:93:c0:6d:56:80:98:34:df:
         02:20:0a:c3:ad:76:05:6e:ee:a2:34:15:0d:db:d6:2f:2f:2e:
         9b:32:02:27:8b:28:a4:f9:dd:e6:86:3e:1a:33:68:7f
-----BEGIN CERTIFICATE-----
MIICyzCCAnKgAwIBAgIBCDAKBggqhkjOPQQDAjCBlTELMAkGA1UEBhMCUlUxGzAZ
BgNVBAgMElJ1c3NpYW4gRmVkZXJhdGlvbjEZMBcGA1UEBwwQU2FpbnQgUGV0ZXJz
YnVyZzEPMA0GA1UECgwGWWFuZGV4MREwDwYDVQQLDAhiYWxhbmNlcjEqMCgGCSqG
SIb3DQEJARYbYmFsYW5jZXItZGV2QHlhbmRleC10ZWFtLnJ1MB4XDTQ5MTIzMDIz
NTk1OVoXDTQ5MTIzMTIzNTk1OVowgZUxCzAJBgNVBAYTAlJVMRswGQYDVQQIDBJS
dXNzaWFuIEZlZGVyYXRpb24xDzANBgNVBAoMBllhbmRleDERMA8GA1UECwwIYmFs
YW5jZXIxGTAXBgNVBAMMEGZ1dHVyZS55YW5kZXgucnUxKjAoBgkqhkiG9w0BCQEW
G2JhbGFuY2VyLWRldkB5YW5kZXgtdGVhbS5ydTBZMBMGByqGSM49AgEGCCqGSM49
AwEHA0IABDuLVMQ+jVprmdLpQtS7JOntiEEPoBptOJUKU5CobelzWbDVjXNT9Nhd
Js0iJMfRONRoFr66eDudxodOYOuA4qyjgbAwga0wCQYDVR0TBAIwADAsBglghkgB
hvhCAQ0EHxYdT3BlblNTTCBHZW5lcmF0ZWQgQ2VydGlmaWNhdGUwHQYDVR0OBBYE
FFt+pGl+9JXWIptqXkezqcu0ygVWMB8GA1UdIwQYMBaAFK/MuF61Y1yB0lf6M4JB
Fu922uVpMDIGCCsGAQUFBwEBBCYwJDAiBggrBgEFBQcwAYYWaHR0cDovL2xvY2Fs
aG9zdDoxMTAwMDAKBggqhkjOPQQDAgNHADBEAiAlGfw6R7mbwoWlekpH/ItU3cJ7
1CbmBAOTwG1WgJg03wIgCsOtdgVu7qI0FQ3b1i8vLpsyAieLKKT53eaGPhozaH8=
-----END CERTIFICATE-----
