Certificate:
    Data:
        Version: 3 (0x2)
        Serial Number: 2 (0x2)
    Signature Algorithm: sha1WithRSAEncryption
        Issuer: C=RU, ST=Russian Federation, L=Saint Petersburg, O=Yandex, OU=balancer/emailAddress=balancer-dev@yandex-team.ru
        Validity
            Not Before: Nov 29 17:04:09 2016 GMT
            Not After : Nov 29 17:04:09 3016 GMT
        Subject: C=RU, ST=Russian Federation, O=Yandex, OU=balancer, CN=old.yandex.ru/emailAddress=balancer-dev@yandex-team.ru
        Subject Public Key Info:
            Public Key Algorithm: rsaEncryption
                Public-Key: (2048 bit)
                Modulus:
                    00:bb:5c:96:96:cb:07:37:18:16:cd:e7:85:07:94:
                    31:40:a0:b5:8e:52:a6:4a:05:2b:eb:e7:30:13:67:
                    f7:3f:63:f4:4c:fc:57:a7:75:26:fd:25:75:ef:5c:
                    9e:2d:de:59:7e:34:d6:08:d2:7f:35:ca:70:5d:df:
                    88:a1:0e:05:64:b8:fa:d8:76:b6:84:43:fb:00:27:
                    12:6b:94:86:55:f2:90:45:3a:c7:8d:05:1e:b3:63:
                    d4:ff:dc:d4:40:39:3d:4a:0f:a2:34:1d:6f:86:dd:
                    9c:a1:4d:98:d9:c7:a7:78:92:b0:75:48:19:0f:8c:
                    d2:ae:7c:bb:cf:84:da:a0:62:b9:a5:8a:76:d7:ae:
                    2b:b3:66:4f:57:f2:81:26:3d:19:ca:9b:83:4e:ee:
                    ae:29:a2:73:09:9f:6a:2e:05:da:f4:c8:70:34:6a:
                    90:27:47:6b:ba:62:c0:e0:1a:11:f0:3f:d9:2e:97:
                    fe:a3:86:af:13:c5:46:57:5f:96:c4:57:9d:76:be:
                    05:6c:01:b5:47:23:d1:cf:1a:11:3f:44:5e:67:81:
                    a7:2a:3b:42:35:df:8e:b9:19:b8:e3:76:a8:9d:26:
                    34:f5:f5:6f:d8:fc:33:09:d5:80:b7:58:56:35:2d:
                    79:18:67:ec:c7:57:42:96:02:b9:93:1d:e7:33:15:
                    39:27
                Exponent: 65537 (0x10001)
        X509v3 extensions:
            X509v3 Basic Constraints: 
                CA:FALSE
            Netscape Comment: 
                OpenSSL Generated Certificate
            X509v3 Subject Key Identifier: 
                FF:38:31:E5:D8:46:F4:48:49:86:6D:90:32:E2:5E:D0:D5:E7:E1:F6
            X509v3 Authority Key Identifier: 
                keyid:FA:82:31:83:4A:9F:42:5C:67:BA:83:AA:E4:5A:AD:9A:24:79:5C:83

            Authority Information Access: 
                OCSP - URI:http://localhost:11000

    Signature Algorithm: sha1WithRSAEncryption
         17:46:9f:5e:48:05:07:77:c1:3a:ec:4a:f1:1d:33:ec:f2:18:
         89:e2:06:07:08:af:2d:9d:3c:bb:24:e4:6d:a6:42:96:94:18:
         cd:e2:a0:b5:d6:97:05:d2:f5:2d:55:17:a4:95:b0:fa:70:c4:
         57:d4:c8:3c:73:11:e2:22:1b:02:ea:5c:e3:ae:fd:fc:93:0f:
         34:57:a6:a3:19:78:a5:5a:71:5c:17:2a:13:18:da:ad:94:47:
         6f:f6:9b:ab:c6:6b:3e:bd:5f:00:23:e9:f6:17:82:99:1f:5f:
         30:77:ea:05:fc:a8:1b:50:52:2b:a6:32:3a:b7:60:a9:67:6e:
         76:fe:13:73:d9:f7:29:81:f7:9c:56:47:0c:99:61:82:a4:a4:
         01:c8:12:12:a0:57:9a:e9:da:0d:7a:5b:ba:f3:fa:aa:aa:ca:
         72:3d:38:8a:37:bb:4a:e7:7e:9e:67:a6:16:22:7f:12:ca:db:
         4e:eb:0b:a0:1b:1a:73:87:2f:2e:10:d0:34:3e:fe:f4:7c:b8:
         b1:9e:c4:58:ce:8c:46:db:37:38:0b:75:a4:53:cc:7e:63:71:
         ba:f0:a4:33:b0:26:4a:c0:4e:53:4e:30:50:30:af:fb:6f:d6:
         0c:0d:87:be:0c:f5:10:7e:07:a7:27:8a:0b:40:b2:ff:d4:52:
         7a:44:91:3f
-----BEGIN CERTIFICATE-----
MIIEVzCCAz+gAwIBAgIBAjANBgkqhkiG9w0BAQUFADCBlTELMAkGA1UEBhMCUlUx
GzAZBgNVBAgMElJ1c3NpYW4gRmVkZXJhdGlvbjEZMBcGA1UEBwwQU2FpbnQgUGV0
ZXJzYnVyZzEPMA0GA1UECgwGWWFuZGV4MREwDwYDVQQLDAhiYWxhbmNlcjEqMCgG
CSqGSIb3DQEJARYbYmFsYW5jZXItZGV2QHlhbmRleC10ZWFtLnJ1MCAXDTE2MTEy
OTE3MDQwOVoYDzMwMTYxMTI5MTcwNDA5WjCBkjELMAkGA1UEBhMCUlUxGzAZBgNV
BAgMElJ1c3NpYW4gRmVkZXJhdGlvbjEPMA0GA1UECgwGWWFuZGV4MREwDwYDVQQL
DAhiYWxhbmNlcjEWMBQGA1UEAwwNb2xkLnlhbmRleC5ydTEqMCgGCSqGSIb3DQEJ
ARYbYmFsYW5jZXItZGV2QHlhbmRleC10ZWFtLnJ1MIIBIjANBgkqhkiG9w0BAQEF
AAOCAQ8AMIIBCgKCAQEAu1yWlssHNxgWzeeFB5QxQKC1jlKmSgUr6+cwE2f3P2P0
TPxXp3Um/SV171yeLd5ZfjTWCNJ/NcpwXd+IoQ4FZLj62Ha2hEP7ACcSa5SGVfKQ
RTrHjQUes2PU/9zUQDk9Sg+iNB1vht2coU2Y2ceneJKwdUgZD4zSrny7z4TaoGK5
pYp2164rs2ZPV/KBJj0ZypuDTu6uKaJzCZ9qLgXa9MhwNGqQJ0drumLA4BoR8D/Z
Lpf+o4avE8VGV1+WxFeddr4FbAG1RyPRzxoRP0ReZ4GnKjtCNd+OuRm443aonSY0
9fVv2PwzCdWAt1hWNS15GGfsx1dClgK5kx3nMxU5JwIDAQABo4GwMIGtMAkGA1Ud
EwQCMAAwLAYJYIZIAYb4QgENBB8WHU9wZW5TU0wgR2VuZXJhdGVkIENlcnRpZmlj
YXRlMB0GA1UdDgQWBBT/ODHl2Eb0SEmGbZAy4l7Q1efh9jAfBgNVHSMEGDAWgBT6
gjGDSp9CXGe6g6rkWq2aJHlcgzAyBggrBgEFBQcBAQQmMCQwIgYIKwYBBQUHMAGG
Fmh0dHA6Ly9sb2NhbGhvc3Q6MTEwMDAwDQYJKoZIhvcNAQEFBQADggEBABdGn15I
BQd3wTrsSvEdM+zyGIniBgcIry2dPLsk5G2mQpaUGM3ioLXWlwXS9S1VF6SVsPpw
xFfUyDxzEeIiGwLqXOOu/fyTDzRXpqMZeKVacVwXKhMY2q2UR2/2m6vGaz69XwAj
6fYXgpkfXzB36gX8qBtQUiumMjq3YKlnbnb+E3PZ9ymB95xWRwyZYYKkpAHIEhKg
V5rp2g16W7rz+qqqynI9OIo3u0rnfp5nphYifxLK207rC6AbGnOHLy4Q0DQ+/vR8
uLGexFjOjEbbNzgLdaRTzH5jcbrwpDOwJkrATlNOMFAwr/tv1gwNh74M9RB+B6cn
igtAsv/UUnpEkT8=
-----END CERTIFICATE-----
