Certificate:
    Data:
        Version: 3 (0x2)
        Serial Number: 3 (0x3)
    Signature Algorithm: sha1WithRSAEncryption
        Issuer: C=RU, ST=Russian Federation, L=Saint Petersburg, O=Yandex, OU=balancer/emailAddress=balancer-dev@yandex-team.ru
        Validity
            Not Before: Nov 29 17:04:10 2016 GMT
            Not After : Nov 29 17:04:10 3016 GMT
        Subject: C=RU, ST=Russian Federation, O=Yandex, OU=balancer, CN=old_client.yandex.ru/emailAddress=balancer-dev@yandex-team.ru
        Subject Public Key Info:
            Public Key Algorithm: rsaEncryption
                Public-Key: (2048 bit)
                Modulus:
                    00:a0:d8:7c:41:ae:db:cd:43:26:96:88:e6:0f:dd:
                    17:e8:87:ab:e6:b3:59:69:29:ca:05:fd:20:5d:0e:
                    b0:56:f4:cd:b1:10:98:d1:2d:61:3d:3b:7a:c2:f8:
                    62:5f:07:80:43:fb:d3:8c:17:e2:1a:6c:b9:19:82:
                    4e:f8:ea:36:2b:f2:0e:a0:57:05:a8:f1:0a:47:84:
                    69:77:9d:94:e3:cb:9f:24:a8:fd:49:12:49:9c:46:
                    43:d6:72:e7:a7:04:c0:57:71:cd:83:f2:97:d8:46:
                    06:54:06:68:a7:0f:ed:b1:04:69:d8:b4:35:57:fa:
                    c5:68:20:ba:a0:e6:4c:e0:22:cd:b7:65:1a:8f:fd:
                    2a:a3:00:a4:e0:c6:d0:3b:ce:7b:78:da:d4:f1:b2:
                    da:77:55:c8:d5:e4:16:35:89:52:eb:6a:d9:24:d3:
                    97:bd:d9:0e:1a:be:89:3d:97:c4:9f:1a:5f:5a:b9:
                    3e:4d:d8:41:7a:04:b1:82:dc:37:07:9a:8c:c8:75:
                    03:78:02:64:bc:ca:7d:4b:2e:e4:15:18:81:74:83:
                    31:52:1b:7d:b6:81:f2:c8:39:c3:3c:71:c8:ba:c8:
                    26:8c:5a:15:26:65:7e:6f:d0:77:10:38:e1:93:b5:
                    84:c7:1f:3e:72:48:d7:3a:a5:ab:6b:08:ed:c9:ff:
                    70:fb
                Exponent: 65537 (0x10001)
        X509v3 extensions:
            X509v3 Basic Constraints: 
                CA:FALSE
            Netscape Comment: 
                OpenSSL Generated Certificate
            X509v3 Subject Key Identifier: 
                A4:29:11:24:C1:4C:CC:43:F6:E1:40:1C:CA:53:22:FA:15:B9:19:17
            X509v3 Authority Key Identifier: 
                keyid:FA:82:31:83:4A:9F:42:5C:67:BA:83:AA:E4:5A:AD:9A:24:79:5C:83

            Authority Information Access: 
                OCSP - URI:http://localhost:11000

    Signature Algorithm: sha1WithRSAEncryption
         82:d0:81:a1:ac:e2:c1:78:f9:5a:d9:a2:e3:f8:3e:36:5c:08:
         b2:b3:60:d9:64:fa:67:3f:26:71:de:ea:ab:53:21:1c:da:c6:
         0f:8a:87:60:11:6f:5b:aa:04:e7:db:7a:41:63:99:d9:79:93:
         e6:37:da:83:1f:dc:e0:2a:1c:8f:6a:b4:25:ea:43:96:3a:33:
         bf:e1:c6:93:5f:aa:9a:d9:d5:3f:2b:87:0b:05:bd:18:06:ca:
         ea:cc:13:b8:27:4c:dc:35:74:fe:0a:8d:f7:0f:c9:58:8a:a7:
         71:99:99:2d:88:99:c9:ff:ff:96:cf:44:56:06:70:b9:8c:c4:
         79:89:bc:0b:d3:be:79:af:05:ec:ea:ed:70:60:00:87:75:61:
         3b:3e:41:78:f8:8f:68:02:5d:8e:10:0b:29:e0:a8:22:1e:90:
         56:26:ea:7b:c9:b5:28:02:b1:de:44:a4:4b:c9:3b:d4:ce:78:
         6a:44:9a:81:aa:fd:07:53:d1:a8:24:15:86:2c:cc:e8:69:85:
         a8:49:0f:18:20:d7:fc:6f:95:88:3b:45:84:4f:14:56:9a:d5:
         ec:e3:98:bb:e4:b5:19:8a:a9:40:3c:b6:5b:ea:8c:ee:41:fe:
         73:5e:56:be:8e:63:73:92:9d:dc:a6:92:40:14:d9:72:ad:79:
         f2:a9:94:fd
-----BEGIN CERTIFICATE-----
MIIEXjCCA0agAwIBAgIBAzANBgkqhkiG9w0BAQUFADCBlTELMAkGA1UEBhMCUlUx
GzAZBgNVBAgMElJ1c3NpYW4gRmVkZXJhdGlvbjEZMBcGA1UEBwwQU2FpbnQgUGV0
ZXJzYnVyZzEPMA0GA1UECgwGWWFuZGV4MREwDwYDVQQLDAhiYWxhbmNlcjEqMCgG
CSqGSIb3DQEJARYbYmFsYW5jZXItZGV2QHlhbmRleC10ZWFtLnJ1MCAXDTE2MTEy
OTE3MDQxMFoYDzMwMTYxMTI5MTcwNDEwWjCBmTELMAkGA1UEBhMCUlUxGzAZBgNV
BAgMElJ1c3NpYW4gRmVkZXJhdGlvbjEPMA0GA1UECgwGWWFuZGV4MREwDwYDVQQL
DAhiYWxhbmNlcjEdMBsGA1UEAwwUb2xkX2NsaWVudC55YW5kZXgucnUxKjAoBgkq
hkiG9w0BCQEWG2JhbGFuY2VyLWRldkB5YW5kZXgtdGVhbS5ydTCCASIwDQYJKoZI
hvcNAQEBBQADggEPADCCAQoCggEBAKDYfEGu281DJpaI5g/dF+iHq+azWWkpygX9
IF0OsFb0zbEQmNEtYT07esL4Yl8HgEP704wX4hpsuRmCTvjqNivyDqBXBajxCkeE
aXedlOPLnySo/UkSSZxGQ9Zy56cEwFdxzYPyl9hGBlQGaKcP7bEEadi0NVf6xWgg
uqDmTOAizbdlGo/9KqMApODG0DvOe3ja1PGy2ndVyNXkFjWJUutq2STTl73ZDhq+
iT2XxJ8aX1q5Pk3YQXoEsYLcNweajMh1A3gCZLzKfUsu5BUYgXSDMVIbfbaB8sg5
wzxxyLrIJoxaFSZlfm/QdxA44ZO1hMcfPnJI1zqlq2sI7cn/cPsCAwEAAaOBsDCB
rTAJBgNVHRMEAjAAMCwGCWCGSAGG+EIBDQQfFh1PcGVuU1NMIEdlbmVyYXRlZCBD
ZXJ0aWZpY2F0ZTAdBgNVHQ4EFgQUpCkRJMFMzEP24UAcylMi+hW5GRcwHwYDVR0j
BBgwFoAU+oIxg0qfQlxnuoOq5FqtmiR5XIMwMgYIKwYBBQUHAQEEJjAkMCIGCCsG
AQUFBzABhhZodHRwOi8vbG9jYWxob3N0OjExMDAwMA0GCSqGSIb3DQEBBQUAA4IB
AQCC0IGhrOLBePla2aLj+D42XAiys2DZZPpnPyZx3uqrUyEc2sYPiodgEW9bqgTn
23pBY5nZeZPmN9qDH9zgKhyParQl6kOWOjO/4caTX6qa2dU/K4cLBb0YBsrqzBO4
J0zcNXT+Co33D8lYiqdxmZktiJnJ//+Wz0RWBnC5jMR5ibwL0755rwXs6u1wYACH
dWE7PkF4+I9oAl2OEAsp4KgiHpBWJup7ybUoArHeRKRLyTvUznhqRJqBqv0HU9Go
JBWGLMzoaYWoSQ8YINf8b5WIO0WETxRWmtXs45i75LUZiqlAPLZb6ozuQf5zXla+
jmNzkp3cppJAFNlyrXnyqZT9
-----END CERTIFICATE-----
