Certificate:
    Data:
        Version: 3 (0x2)
        Serial Number: 4 (0x4)
    Signature Algorithm: ecdsa-with-SHA256
        Issuer: C=RU, ST=Russian Federation, L=Saint Petersburg, O=Yandex, OU=balancer/emailAddress=balancer-dev@yandex-team.ru
        Validity
            Not Before: Nov 29 17:04:09 2016 GMT
            Not After : Nov 29 17:04:09 3016 GMT
        Subject: C=RU, ST=Russian Federation, O=Yandex, OU=balancer, CN=other_revoked.yandex.ru/emailAddress=balancer-dev@yandex-team.ru
        Subject Public Key Info:
            Public Key Algorithm: id-ecPublicKey
                Public-Key: (256 bit)
                pub: 
                    04:00:7f:2b:ac:1c:e1:0f:b2:fb:6b:ff:5e:bf:ba:
                    76:8f:3b:02:31:05:b3:94:2c:0a:22:48:e8:c5:fc:
                    6a:b1:be:7c:73:aa:ce:7e:f5:87:2a:cd:0c:cd:c8:
                    4f:b2:3c:94:ab:03:c3:2c:8e:1d:f6:67:57:fa:9c:
                    b3:e0:18:b6:62
                ASN1 OID: prime256v1
        X509v3 extensions:
            X509v3 Basic Constraints: 
                CA:FALSE
            Netscape Comment: 
                OpenSSL Generated Certificate
            X509v3 Subject Key Identifier: 
                2B:2C:16:AA:AB:A9:B9:EE:CC:BC:12:67:0D:EF:33:E5:04:BF:B6:D5
            X509v3 Authority Key Identifier: 
                keyid:52:88:E7:99:F8:44:43:3B:F8:37:8A:30:31:EF:64:45:17:FA:BE:1B

            Authority Information Access: 
                OCSP - URI:http://localhost:11000

    Signature Algorithm: ecdsa-with-SHA256
         30:45:02:20:2f:95:3e:b9:a6:89:ea:7c:9a:fd:3f:8b:4a:ff:
         c6:8c:47:e2:66:fb:0d:69:7d:ff:16:e9:c6:cd:a8:d7:df:a3:
         02:21:00:fd:2f:0b:f4:29:88:9b:1f:b0:b3:40:a7:b8:72:5f:
         57:ab:63:cb:7e:cd:5f:c3:8e:4f:fc:16:df:48:47:52:b9
-----BEGIN CERTIFICATE-----
MIIC1TCCAnugAwIBAgIBBDAKBggqhkjOPQQDAjCBlTELMAkGA1UEBhMCUlUxGzAZ
BgNVBAgMElJ1c3NpYW4gRmVkZXJhdGlvbjEZMBcGA1UEBwwQU2FpbnQgUGV0ZXJz
YnVyZzEPMA0GA1UECgwGWWFuZGV4MREwDwYDVQQLDAhiYWxhbmNlcjEqMCgGCSqG
SIb3DQEJARYbYmFsYW5jZXItZGV2QHlhbmRleC10ZWFtLnJ1MCAXDTE2MTEyOTE3
MDQwOVoYDzMwMTYxMTI5MTcwNDA5WjCBnDELMAkGA1UEBhMCUlUxGzAZBgNVBAgM
ElJ1c3NpYW4gRmVkZXJhdGlvbjEPMA0GA1UECgwGWWFuZGV4MREwDwYDVQQLDAhi
YWxhbmNlcjEgMB4GA1UEAwwXb3RoZXJfcmV2b2tlZC55YW5kZXgucnUxKjAoBgkq
hkiG9w0BCQEWG2JhbGFuY2VyLWRldkB5YW5kZXgtdGVhbS5ydTBZMBMGByqGSM49
AgEGCCqGSM49AwEHA0IABAB/K6wc4Q+y+2v/Xr+6do87AjEFs5QsCiJI6MX8arG+
fHOqzn71hyrNDM3IT7I8lKsDwyyOHfZnV/qcs+AYtmKjgbAwga0wCQYDVR0TBAIw
ADAsBglghkgBhvhCAQ0EHxYdT3BlblNTTCBHZW5lcmF0ZWQgQ2VydGlmaWNhdGUw
HQYDVR0OBBYEFCssFqqrqbnuzLwSZw3vM+UEv7bVMB8GA1UdIwQYMBaAFFKI55n4
REM7+DeKMDHvZEUX+r4bMDIGCCsGAQUFBwEBBCYwJDAiBggrBgEFBQcwAYYWaHR0
cDovL2xvY2FsaG9zdDoxMTAwMDAKBggqhkjOPQQDAgNIADBFAiAvlT65ponqfJr9
P4tK/8aMR+Jm+w1pff8W6cbNqNffowIhAP0vC/QpiJsfsLNAp7hyX1erY8t+zV/D
jk/8Ft9IR1K5
-----END CERTIFICATE-----
