Certificate:
    Data:
        Version: 3 (0x2)
        Serial Number: 2 (0x2)
    Signature Algorithm: ecdsa-with-SHA256
        Issuer: C=RU, ST=Russian Federation, L=Saint Petersburg, O=Yandex, OU=balancer/emailAddress=balancer-dev@yandex-team.ru
        Validity
            Not Before: Nov 29 17:04:09 2016 GMT
            Not After : Nov 29 17:04:09 3016 GMT
        Subject: C=RU, ST=Russian Federation, O=Yandex, OU=balancer, CN=other.yandex.ru/emailAddress=balancer-dev@yandex-team.ru
        Subject Public Key Info:
            Public Key Algorithm: id-ecPublicKey
                Public-Key: (256 bit)
                pub: 
                    04:0e:8e:4e:ab:fc:cb:d5:02:43:e8:92:b6:c4:f7:
                    2a:77:e2:1a:44:e7:1c:93:4c:e0:ca:b2:53:58:e9:
                    4f:bf:12:7d:f7:68:88:d9:44:a0:45:b7:a3:24:ee:
                    36:e9:89:ee:de:04:bb:f5:79:49:d5:16:ae:a8:b4:
                    86:a4:fa:ac:a0
                ASN1 OID: prime256v1
        X509v3 extensions:
            X509v3 Basic Constraints: 
                CA:FALSE
            Netscape Comment: 
                OpenSSL Generated Certificate
            X509v3 Subject Key Identifier: 
                E9:C7:C8:A3:31:3C:D9:0C:FD:74:60:37:1F:AB:CE:C1:E1:8E:D3:29
            X509v3 Authority Key Identifier: 
                keyid:52:88:E7:99:F8:44:43:3B:F8:37:8A:30:31:EF:64:45:17:FA:BE:1B

            Authority Information Access: 
                OCSP - URI:http://localhost:11000

    Signature Algorithm: ecdsa-with-SHA256
         30:46:02:21:00:8f:d2:39:d5:67:48:8b:c3:53:73:0c:d7:aa:
         16:ad:80:6a:f7:d6:7f:d8:ad:87:f7:e3:3d:5a:36:dd:88:fd:
         fa:02:21:00:84:ac:83:cb:5b:4b:ae:25:6e:5d:5c:23:ba:98:
         e1:17:f3:ac:fb:80:b0:d4:8d:b4:9b:0c:0a:29:54:9d:79:91
-----BEGIN CERTIFICATE-----
MIICzjCCAnOgAwIBAgIBAjAKBggqhkjOPQQDAjCBlTELMAkGA1UEBhMCUlUxGzAZ
BgNVBAgMElJ1c3NpYW4gRmVkZXJhdGlvbjEZMBcGA1UEBwwQU2FpbnQgUGV0ZXJz
YnVyZzEPMA0GA1UECgwGWWFuZGV4MREwDwYDVQQLDAhiYWxhbmNlcjEqMCgGCSqG
SIb3DQEJARYbYmFsYW5jZXItZGV2QHlhbmRleC10ZWFtLnJ1MCAXDTE2MTEyOTE3
MDQwOVoYDzMwMTYxMTI5MTcwNDA5WjCBlDELMAkGA1UEBhMCUlUxGzAZBgNVBAgM
ElJ1c3NpYW4gRmVkZXJhdGlvbjEPMA0GA1UECgwGWWFuZGV4MREwDwYDVQQLDAhi
YWxhbmNlcjEYMBYGA1UEAwwPb3RoZXIueWFuZGV4LnJ1MSowKAYJKoZIhvcNAQkB
FhtiYWxhbmNlci1kZXZAeWFuZGV4LXRlYW0ucnUwWTATBgcqhkjOPQIBBggqhkjO
PQMBBwNCAAQOjk6r/MvVAkPokrbE9yp34hpE5xyTTODKslNY6U+/En33aIjZRKBF
t6Mk7jbpie7eBLv1eUnVFq6otIak+qygo4GwMIGtMAkGA1UdEwQCMAAwLAYJYIZI
AYb4QgENBB8WHU9wZW5TU0wgR2VuZXJhdGVkIENlcnRpZmljYXRlMB0GA1UdDgQW
BBTpx8ijMTzZDP10YDcfq87B4Y7TKTAfBgNVHSMEGDAWgBRSiOeZ+ERDO/g3ijAx
72RFF/q+GzAyBggrBgEFBQcBAQQmMCQwIgYIKwYBBQUHMAGGFmh0dHA6Ly9sb2Nh
bGhvc3Q6MTEwMDAwCgYIKoZIzj0EAwIDSQAwRgIhAI/SOdVnSIvDU3MM16oWrYBq
99Z/2K2H9+M9WjbdiP36AiEAhKyDy1tLriVuXVwjupjhF/Os+4Cw1I20mwwKKVSd
eZE=
-----END CERTIFICATE-----
