Certificate:
    Data:
        Version: 3 (0x2)
        Serial Number: 3 (0x3)
    Signature Algorithm: ecdsa-with-SHA256
        Issuer: C=RU, ST=Russian Federation, L=Saint Petersburg, O=Yandex, OU=balancer/emailAddress=balancer-dev@yandex-team.ru
        Validity
            Not Before: Nov 29 17:04:09 2016 GMT
            Not After : Nov 29 17:04:09 3016 GMT
        Subject: C=RU, ST=Russian Federation, O=Yandex, OU=balancer, CN=other_client.yandex.ru/emailAddress=balancer-dev@yandex-team.ru
        Subject Public Key Info:
            Public Key Algorithm: id-ecPublicKey
                Public-Key: (256 bit)
                pub: 
                    04:52:0f:6b:4b:a1:cb:36:a4:f4:f8:c9:37:5e:be:
                    cc:a4:42:11:a9:7f:8c:7b:d0:4c:80:94:07:c2:85:
                    5f:a0:74:c9:58:02:73:3c:91:ae:a5:0a:c4:62:db:
                    06:d9:6e:33:2e:cd:22:ca:20:5f:f4:a4:1a:29:1c:
                    31:57:bc:30:9a
                ASN1 OID: prime256v1
        X509v3 extensions:
            X509v3 Basic Constraints: 
                CA:FALSE
            Netscape Comment: 
                OpenSSL Generated Certificate
            X509v3 Subject Key Identifier: 
                A5:0C:6B:CB:42:12:84:64:8C:BB:D4:86:BF:77:AF:98:C7:D9:73:5B
            X509v3 Authority Key Identifier: 
                keyid:52:88:E7:99:F8:44:43:3B:F8:37:8A:30:31:EF:64:45:17:FA:BE:1B

            Authority Information Access: 
                OCSP - URI:http://localhost:11000

    Signature Algorithm: ecdsa-with-SHA256
         30:46:02:21:00:84:02:7d:eb:94:f4:78:9f:5e:50:29:23:e8:
         74:12:07:a0:c7:cf:73:5a:4d:e9:9e:e1:c3:1c:d6:ef:03:df:
         65:02:21:00:f8:50:be:72:79:d1:0e:f4:b8:f2:05:56:33:48:
         e7:d8:20:6b:d3:7b:e2:b8:e6:54:c6:11:cc:f0:fd:b9:ce:45
-----BEGIN CERTIFICATE-----
MIIC1TCCAnqgAwIBAgIBAzAKBggqhkjOPQQDAjCBlTELMAkGA1UEBhMCUlUxGzAZ
BgNVBAgMElJ1c3NpYW4gRmVkZXJhdGlvbjEZMBcGA1UEBwwQU2FpbnQgUGV0ZXJz
YnVyZzEPMA0GA1UECgwGWWFuZGV4MREwDwYDVQQLDAhiYWxhbmNlcjEqMCgGCSqG
SIb3DQEJARYbYmFsYW5jZXItZGV2QHlhbmRleC10ZWFtLnJ1MCAXDTE2MTEyOTE3
MDQwOVoYDzMwMTYxMTI5MTcwNDA5WjCBmzELMAkGA1UEBhMCUlUxGzAZBgNVBAgM
ElJ1c3NpYW4gRmVkZXJhdGlvbjEPMA0GA1UECgwGWWFuZGV4MREwDwYDVQQLDAhi
YWxhbmNlcjEfMB0GA1UEAwwWb3RoZXJfY2xpZW50LnlhbmRleC5ydTEqMCgGCSqG
SIb3DQEJARYbYmFsYW5jZXItZGV2QHlhbmRleC10ZWFtLnJ1MFkwEwYHKoZIzj0C
AQYIKoZIzj0DAQcDQgAEUg9rS6HLNqT0+Mk3Xr7MpEIRqX+Me9BMgJQHwoVfoHTJ
WAJzPJGupQrEYtsG2W4zLs0iyiBf9KQaKRwxV7wwmqOBsDCBrTAJBgNVHRMEAjAA
MCwGCWCGSAGG+EIBDQQfFh1PcGVuU1NMIEdlbmVyYXRlZCBDZXJ0aWZpY2F0ZTAd
BgNVHQ4EFgQUpQxry0IShGSMu9SGv3evmMfZc1swHwYDVR0jBBgwFoAUUojnmfhE
Qzv4N4owMe9kRRf6vhswMgYIKwYBBQUHAQEEJjAkMCIGCCsGAQUFBzABhhZodHRw
Oi8vbG9jYWxob3N0OjExMDAwMAoGCCqGSM49BAMCA0kAMEYCIQCEAn3rlPR4n15Q
KSPodBIHoMfPc1pN6Z7hwxzW7wPfZQIhAPhQvnJ50Q70uPIFVjNI59gga9N74rjm
VMYRzPD9uc5F
-----END CERTIFICATE-----
