Certificate:
    Data:
        Version: 3 (0x2)
        Serial Number: 6 (0x6)
    Signature Algorithm: ecdsa-with-SHA256
        Issuer: C=RU, ST=Russian Federation, L=Saint Petersburg, O=Yandex, OU=balancer/emailAddress=balancer-dev@yandex-team.ru
        Validity
            Not Before: Dec 30 23:59:59 2049 GMT
            Not After : Dec 31 23:59:59 2049 GMT
        Subject: C=RU, ST=Russian Federation, O=Yandex, OU=balancer, CN=other_future.yandex.ru/emailAddress=balancer-dev@yandex-team.ru
        Subject Public Key Info:
            Public Key Algorithm: id-ecPublicKey
                Public-Key: (256 bit)
                pub: 
                    04:56:6e:09:8b:16:8a:eb:70:59:66:08:64:95:a8:
                    a4:7a:f9:f5:d5:26:86:df:f3:d1:f8:93:f5:6a:a2:
                    e4:70:86:77:cd:fe:d3:cb:41:51:9f:d8:52:e9:d2:
                    cb:fc:de:a5:54:80:72:32:cb:d3:ab:fc:8c:58:58:
                    94:08:a4:3f:33
                ASN1 OID: prime256v1
        X509v3 extensions:
            X509v3 Basic Constraints: 
                CA:FALSE
            Netscape Comment: 
                OpenSSL Generated Certificate
            X509v3 Subject Key Identifier: 
                7A:F1:40:14:ED:7C:7D:A7:B7:48:83:CB:C1:75:E0:DA:FF:B6:48:32
            X509v3 Authority Key Identifier: 
                keyid:52:88:E7:99:F8:44:43:3B:F8:37:8A:30:31:EF:64:45:17:FA:BE:1B

            Authority Information Access: 
                OCSP - URI:http://localhost:11000

    Signature Algorithm: ecdsa-with-SHA256
         30:45:02:21:00:c9:b9:86:c4:09:ef:94:ff:e1:79:7c:da:0c:
         41:45:e6:5b:de:af:08:4d:bc:0b:7a:4e:f8:22:da:19:43:51:
         8c:02:20:34:3e:a4:e3:5b:f5:f0:72:8e:07:48:38:0b:6d:05:
         db:d8:a4:12:3c:b5:6e:c5:79:a4:64:7f:79:52:1a:ac:b9
-----BEGIN CERTIFICATE-----
MIIC0jCCAnigAwIBAgIBBjAKBggqhkjOPQQDAjCBlTELMAkGA1UEBhMCUlUxGzAZ
BgNVBAgMElJ1c3NpYW4gRmVkZXJhdGlvbjEZMBcGA1UEBwwQU2FpbnQgUGV0ZXJz
YnVyZzEPMA0GA1UECgwGWWFuZGV4MREwDwYDVQQLDAhiYWxhbmNlcjEqMCgGCSqG
SIb3DQEJARYbYmFsYW5jZXItZGV2QHlhbmRleC10ZWFtLnJ1MB4XDTQ5MTIzMDIz
NTk1OVoXDTQ5MTIzMTIzNTk1OVowgZsxCzAJBgNVBAYTAlJVMRswGQYDVQQIDBJS
dXNzaWFuIEZlZGVyYXRpb24xDzANBgNVBAoMBllhbmRleDERMA8GA1UECwwIYmFs
YW5jZXIxHzAdBgNVBAMMFm90aGVyX2Z1dHVyZS55YW5kZXgucnUxKjAoBgkqhkiG
9w0BCQEWG2JhbGFuY2VyLWRldkB5YW5kZXgtdGVhbS5ydTBZMBMGByqGSM49AgEG
CCqGSM49AwEHA0IABFZuCYsWiutwWWYIZJWopHr59dUmht/z0fiT9Wqi5HCGd83+
08tBUZ/YUunSy/zepVSAcjLL06v8jFhYlAikPzOjgbAwga0wCQYDVR0TBAIwADAs
BglghkgBhvhCAQ0EHxYdT3BlblNTTCBHZW5lcmF0ZWQgQ2VydGlmaWNhdGUwHQYD
VR0OBBYEFHrxQBTtfH2nt0iDy8F14Nr/tkgyMB8GA1UdIwQYMBaAFFKI55n4REM7
+DeKMDHvZEUX+r4bMDIGCCsGAQUFBwEBBCYwJDAiBggrBgEFBQcwAYYWaHR0cDov
L2xvY2FsaG9zdDoxMTAwMDAKBggqhkjOPQQDAgNIADBFAiEAybmGxAnvlP/heXza
DEFF5lverwhNvAt6Tvgi2hlDUYwCIDQ+pONb9fByjgdIOAttBdvYpBI8tW7FeaRk
f3lSGqy5
-----END CERTIFICATE-----
