Certificate:
    Data:
        Version: 3 (0x2)
        Serial Number: 5 (0x5)
    Signature Algorithm: ecdsa-with-SHA256
        Issuer: C=RU, ST=Russian Federation, L=Saint Petersburg, O=Yandex, OU=balancer/emailAddress=balancer-dev@yandex-team.ru
        Validity
            Not Before: Sep  9 01:46:40 2001 GMT
            Not After : Sep 10 01:46:40 2001 GMT
        Subject: C=RU, ST=Russian Federation, O=Yandex, OU=balancer, CN=other_expired.yandex.ru/emailAddress=balancer-dev@yandex-team.ru
        Subject Public Key Info:
            Public Key Algorithm: id-ecPublicKey
                Public-Key: (256 bit)
                pub: 
                    04:ce:1a:3f:6f:5b:ff:9c:ba:93:1a:b5:fe:7c:54:
                    05:35:98:48:bb:84:e9:bd:84:14:bd:26:d6:71:96:
                    2a:7f:7c:cb:52:0b:5e:c6:61:38:02:d2:39:ed:b1:
                    f3:1a:d6:94:5f:1a:02:0f:1c:37:1b:9b:d8:9e:46:
                    4d:cf:b2:2a:11
                ASN1 OID: prime256v1
        X509v3 extensions:
            X509v3 Basic Constraints: 
                CA:FALSE
            Netscape Comment: 
                OpenSSL Generated Certificate
            X509v3 Subject Key Identifier: 
                30:49:56:30:E1:B5:11:CE:49:E7:8A:A4:17:54:86:2D:9B:77:0A:BC
            X509v3 Authority Key Identifier: 
                keyid:52:88:E7:99:F8:44:43:3B:F8:37:8A:30:31:EF:64:45:17:FA:BE:1B

            Authority Information Access: 
                OCSP - URI:http://localhost:11000

    Signature Algorithm: ecdsa-with-SHA256
         30:45:02:21:00:c2:f7:93:d9:71:af:5a:d6:8f:ed:4b:fd:74:
         8d:ac:ed:db:75:43:14:a3:f5:b0:be:b7:f1:4e:c4:72:85:fa:
         b3:02:20:55:96:46:23:44:d3:2e:4a:3b:da:33:1a:7d:de:0c:
         13:5c:b9:e0:1a:26:34:f3:c3:22:fb:f0:87:c4:d2:72:12
-----BEGIN CERTIFICATE-----
MIIC0zCCAnmgAwIBAgIBBTAKBggqhkjOPQQDAjCBlTELMAkGA1UEBhMCUlUxGzAZ
BgNVBAgMElJ1c3NpYW4gRmVkZXJhdGlvbjEZMBcGA1UEBwwQU2FpbnQgUGV0ZXJz
YnVyZzEPMA0GA1UECgwGWWFuZGV4MREwDwYDVQQLDAhiYWxhbmNlcjEqMCgGCSqG
SIb3DQEJARYbYmFsYW5jZXItZGV2QHlhbmRleC10ZWFtLnJ1MB4XDTAxMDkwOTAx
NDY0MFoXDTAxMDkxMDAxNDY0MFowgZwxCzAJBgNVBAYTAlJVMRswGQYDVQQIDBJS
dXNzaWFuIEZlZGVyYXRpb24xDzANBgNVBAoMBllhbmRleDERMA8GA1UECwwIYmFs
YW5jZXIxIDAeBgNVBAMMF290aGVyX2V4cGlyZWQueWFuZGV4LnJ1MSowKAYJKoZI
hvcNAQkBFhtiYWxhbmNlci1kZXZAeWFuZGV4LXRlYW0ucnUwWTATBgcqhkjOPQIB
BggqhkjOPQMBBwNCAATOGj9vW/+cupMatf58VAU1mEi7hOm9hBS9JtZxlip/fMtS
C17GYTgC0jntsfMa1pRfGgIPHDcbm9ieRk3PsioRo4GwMIGtMAkGA1UdEwQCMAAw
LAYJYIZIAYb4QgENBB8WHU9wZW5TU0wgR2VuZXJhdGVkIENlcnRpZmljYXRlMB0G
A1UdDgQWBBQwSVYw4bURzknniqQXVIYtm3cKvDAfBgNVHSMEGDAWgBRSiOeZ+ERD
O/g3ijAx72RFF/q+GzAyBggrBgEFBQcBAQQmMCQwIgYIKwYBBQUHMAGGFmh0dHA6
Ly9sb2NhbGhvc3Q6MTEwMDAwCgYIKoZIzj0EAwIDSAAwRQIhAML3k9lxr1rWj+1L
/XSNrO3bdUMUo/WwvrfxTsRyhfqzAiBVlkYjRNMuSjvaMxp93gwTXLngGiY088Mi
+/CHxNJyEg==
-----END CERTIFICATE-----
