Certificate:
    Data:
        Version: 3 (0x2)
        Serial Number: 6 (0x6)
    Signature Algorithm: ecdsa-with-SHA256
        Issuer: C=RU, ST=Russian Federation, L=Saint Petersburg, O=Yandex, OU=balancer/emailAddress=balancer-dev@yandex-team.ru
        Validity
            Not Before: Nov 29 17:04:08 2016 GMT
            Not After : Nov 29 17:04:08 3016 GMT
        Subject: C=RU, ST=Russian Federation, O=Yandex, OU=balancer, CN=revoked.yandex.ru/emailAddress=balancer-dev@yandex-team.ru
        Subject Public Key Info:
            Public Key Algorithm: id-ecPublicKey
                Public-Key: (256 bit)
                pub: 
                    04:f6:f7:b9:8b:2d:d5:23:0d:c9:f3:7f:c4:1c:4b:
                    cc:76:41:86:84:6e:60:45:34:26:4a:26:4c:5c:e6:
                    6b:f1:17:b4:2e:22:a8:3f:fa:b5:3a:92:7e:02:a1:
                    f2:65:90:cd:ba:05:b8:5a:32:65:e1:2f:c8:5e:89:
                    a5:fa:5d:d8:76
                ASN1 OID: prime256v1
        X509v3 extensions:
            X509v3 Basic Constraints: 
                CA:FALSE
            Netscape Comment: 
                OpenSSL Generated Certificate
            X509v3 Subject Key Identifier: 
                80:74:66:EF:E0:45:58:EF:45:CE:21:49:4B:7B:5D:97:07:CC:F0:67
            X509v3 Authority Key Identifier: 
                keyid:AF:CC:B8:5E:B5:63:5C:81:D2:57:FA:33:82:41:16:EF:76:DA:E5:69

            Authority Information Access: 
                OCSP - URI:http://localhost:11000

    Signature Algorithm: ecdsa-with-SHA256
         30:46:02:21:00:fb:1e:41:b8:4e:59:bf:35:fb:8c:c2:e0:ce:
         c2:cf:85:b9:70:f5:b2:7d:da:26:0d:1b:6f:c6:a6:34:2b:d4:
         ea:02:21:00:93:c3:8e:09:64:a5:51:68:ac:ba:52:fe:d3:0e:
         95:fb:34:eb:9f:ce:2a:22:5a:57:42:43:6d:b5:5f:27:fb:15
-----BEGIN CERTIFICATE-----
MIIC0DCCAnWgAwIBAgIBBjAKBggqhkjOPQQDAjCBlTELMAkGA1UEBhMCUlUxGzAZ
BgNVBAgMElJ1c3NpYW4gRmVkZXJhdGlvbjEZMBcGA1UEBwwQU2FpbnQgUGV0ZXJz
YnVyZzEPMA0GA1UECgwGWWFuZGV4MREwDwYDVQQLDAhiYWxhbmNlcjEqMCgGCSqG
SIb3DQEJARYbYmFsYW5jZXItZGV2QHlhbmRleC10ZWFtLnJ1MCAXDTE2MTEyOTE3
MDQwOFoYDzMwMTYxMTI5MTcwNDA4WjCBljELMAkGA1UEBhMCUlUxGzAZBgNVBAgM
ElJ1c3NpYW4gRmVkZXJhdGlvbjEPMA0GA1UECgwGWWFuZGV4MREwDwYDVQQLDAhi
YWxhbmNlcjEaMBgGA1UEAwwRcmV2b2tlZC55YW5kZXgucnUxKjAoBgkqhkiG9w0B
CQEWG2JhbGFuY2VyLWRldkB5YW5kZXgtdGVhbS5ydTBZMBMGByqGSM49AgEGCCqG
SM49AwEHA0IABPb3uYst1SMNyfN/xBxLzHZBhoRuYEU0JkomTFzma/EXtC4iqD/6
tTqSfgKh8mWQzboFuFoyZeEvyF6Jpfpd2HajgbAwga0wCQYDVR0TBAIwADAsBglg
hkgBhvhCAQ0EHxYdT3BlblNTTCBHZW5lcmF0ZWQgQ2VydGlmaWNhdGUwHQYDVR0O
BBYEFIB0Zu/gRVjvRc4hSUt7XZcHzPBnMB8GA1UdIwQYMBaAFK/MuF61Y1yB0lf6
M4JBFu922uVpMDIGCCsGAQUFBwEBBCYwJDAiBggrBgEFBQcwAYYWaHR0cDovL2xv
Y2FsaG9zdDoxMTAwMDAKBggqhkjOPQQDAgNJADBGAiEA+x5BuE5ZvzX7jMLgzsLP
hblw9bJ92iYNG2/GpjQr1OoCIQCTw44JZKVRaKy6Uv7TDpX7NOufzioiWldCQ221
Xyf7FQ==
-----END CERTIFICATE-----
