Certificate:
    Data:
        Version: 3 (0x2)
        Serial Number: 2 (0x2)
    Signature Algorithm: ecdsa-with-SHA256
        Issuer: C=RU, ST=Russian Federation, L=Saint Petersburg, O=Yandex, OU=balancer/emailAddress=balancer-dev@yandex-team.ru
        Validity
            Not Before: Nov 29 17:04:10 2016 GMT
            Not After : Nov 29 17:04:10 3016 GMT
        Subject: C=RU, ST=Russian Federation, O=Yandex, OU=balancer, CN=unknown.yandex.ru/emailAddress=balancer-dev@yandex-team.ru
        Subject Public Key Info:
            Public Key Algorithm: id-ecPublicKey
                Public-Key: (256 bit)
                pub: 
                    04:9e:5b:6b:f5:a8:68:d8:ba:6b:b6:9d:eb:42:8a:
                    ee:d5:d7:9d:55:c6:03:5b:a8:ee:ed:af:bb:80:e7:
                    49:db:6f:8d:86:cc:d1:c6:48:1d:30:3d:a4:98:7e:
                    cd:d9:7e:99:b8:3b:90:c9:0c:a0:82:ca:d9:bd:4d:
                    94:cc:a3:af:99
                ASN1 OID: prime256v1
        X509v3 extensions:
            X509v3 Basic Constraints: 
                CA:FALSE
            Netscape Comment: 
                OpenSSL Generated Certificate
            X509v3 Subject Key Identifier: 
                D7:80:A3:87:11:16:51:13:20:22:B3:0B:04:D6:AC:83:A3:66:C6:BD
            X509v3 Authority Key Identifier: 
                keyid:44:A6:73:73:FE:23:65:02:AF:73:57:75:01:68:B6:1E:CD:83:9B:CD

            Authority Information Access: 
                OCSP - URI:http://localhost:11000

    Signature Algorithm: ecdsa-with-SHA256
         30:45:02:20:08:fa:3c:e3:55:16:17:1d:e8:90:8b:a3:50:c8:
         7c:4c:e5:9b:9e:0f:58:40:05:8f:20:37:08:27:75:62:c4:0b:
         02:21:00:bd:d8:ee:4a:ac:be:63:f6:bf:22:9d:28:70:92:bc:
         0b:2b:83:a0:16:09:cb:cd:06:dc:ae:60:7b:06:ae:f0:b3
-----BEGIN CERTIFICATE-----
MIICzzCCAnWgAwIBAgIBAjAKBggqhkjOPQQDAjCBlTELMAkGA1UEBhMCUlUxGzAZ
BgNVBAgMElJ1c3NpYW4gRmVkZXJhdGlvbjEZMBcGA1UEBwwQU2FpbnQgUGV0ZXJz
YnVyZzEPMA0GA1UECgwGWWFuZGV4MREwDwYDVQQLDAhiYWxhbmNlcjEqMCgGCSqG
SIb3DQEJARYbYmFsYW5jZXItZGV2QHlhbmRleC10ZWFtLnJ1MCAXDTE2MTEyOTE3
MDQxMFoYDzMwMTYxMTI5MTcwNDEwWjCBljELMAkGA1UEBhMCUlUxGzAZBgNVBAgM
ElJ1c3NpYW4gRmVkZXJhdGlvbjEPMA0GA1UECgwGWWFuZGV4MREwDwYDVQQLDAhi
YWxhbmNlcjEaMBgGA1UEAwwRdW5rbm93bi55YW5kZXgucnUxKjAoBgkqhkiG9w0B
CQEWG2JhbGFuY2VyLWRldkB5YW5kZXgtdGVhbS5ydTBZMBMGByqGSM49AgEGCCqG
SM49AwEHA0IABJ5ba/WoaNi6a7ad60KK7tXXnVXGA1uo7u2vu4DnSdtvjYbM0cZI
HTA9pJh+zdl+mbg7kMkMoILK2b1NlMyjr5mjgbAwga0wCQYDVR0TBAIwADAsBglg
hkgBhvhCAQ0EHxYdT3BlblNTTCBHZW5lcmF0ZWQgQ2VydGlmaWNhdGUwHQYDVR0O
BBYEFNeAo4cRFlETICKzCwTWrIOjZsa9MB8GA1UdIwQYMBaAFESmc3P+I2UCr3NX
dQFoth7Ng5vNMDIGCCsGAQUFBwEBBCYwJDAiBggrBgEFBQcwAYYWaHR0cDovL2xv
Y2FsaG9zdDoxMTAwMDAKBggqhkjOPQQDAgNIADBFAiAI+jzjVRYXHeiQi6NQyHxM
5ZueD1hABY8gNwgndWLECwIhAL3Y7kqsvmP2vyKdKHCSvAsrg6AWCcvNBtyuYHsG
rvCz
-----END CERTIFICATE-----
