Certificate:
    Data:
        Version: 3 (0x2)
        Serial Number: 4 (0x4)
    Signature Algorithm: ecdsa-with-SHA256
        Issuer: C=RU, ST=Russian Federation, L=Saint Petersburg, O=Yandex, OU=balancer/emailAddress=balancer-dev@yandex-team.ru
        Validity
            Not Before: Nov 29 17:04:08 2016 GMT
            Not After : Nov 29 17:04:08 3016 GMT
        Subject: C=RU, ST=Russian Federation, O=Yandex, OU=balancer, CN=vegas.yandex.ru/emailAddress=balancer-dev@yandex-team.ru
        Subject Public Key Info:
            Public Key Algorithm: id-ecPublicKey
                Public-Key: (256 bit)
                pub: 
                    04:eb:bd:12:9f:93:8e:41:22:37:3e:64:86:ef:ac:
                    28:e8:d8:b1:ff:38:41:d8:c0:90:9b:16:c3:b1:1f:
                    2e:a8:39:72:a3:b0:a7:5f:78:6e:65:6e:00:a7:e2:
                    41:7b:e7:35:31:38:1a:1c:a9:32:64:78:9f:8c:70:
                    54:a1:06:b4:78
                ASN1 OID: prime256v1
        X509v3 extensions:
            X509v3 Basic Constraints: 
                CA:FALSE
            Netscape Comment: 
                OpenSSL Generated Certificate
            X509v3 Subject Key Identifier: 
                08:C8:D1:22:C0:CD:CD:92:89:08:27:3D:93:23:9C:4D:1D:3E:1C:5D
            X509v3 Authority Key Identifier: 
                keyid:AF:CC:B8:5E:B5:63:5C:81:D2:57:FA:33:82:41:16:EF:76:DA:E5:69

            Authority Information Access: 
                OCSP - URI:http://localhost:11000

    Signature Algorithm: ecdsa-with-SHA256
         30:45:02:20:4c:18:04:b0:0e:25:64:a6:2c:50:b7:af:1e:ac:
         92:4d:9e:1c:2b:3d:7a:82:8f:04:d9:e4:e4:63:3b:24:fc:3f:
         02:21:00:92:b8:ea:13:e5:90:3d:45:4e:53:9e:be:8e:8f:92:
         a2:ec:9d:95:ee:12:06:ae:67:79:2d:23:25:60:cc:4d:c8
-----BEGIN CERTIFICATE-----
MIICzTCCAnOgAwIBAgIBBDAKBggqhkjOPQQDAjCBlTELMAkGA1UEBhMCUlUxGzAZ
BgNVBAgMElJ1c3NpYW4gRmVkZXJhdGlvbjEZMBcGA1UEBwwQU2FpbnQgUGV0ZXJz
YnVyZzEPMA0GA1UECgwGWWFuZGV4MREwDwYDVQQLDAhiYWxhbmNlcjEqMCgGCSqG
SIb3DQEJARYbYmFsYW5jZXItZGV2QHlhbmRleC10ZWFtLnJ1MCAXDTE2MTEyOTE3
MDQwOFoYDzMwMTYxMTI5MTcwNDA4WjCBlDELMAkGA1UEBhMCUlUxGzAZBgNVBAgM
ElJ1c3NpYW4gRmVkZXJhdGlvbjEPMA0GA1UECgwGWWFuZGV4MREwDwYDVQQLDAhi
YWxhbmNlcjEYMBYGA1UEAwwPdmVnYXMueWFuZGV4LnJ1MSowKAYJKoZIhvcNAQkB
FhtiYWxhbmNlci1kZXZAeWFuZGV4LXRlYW0ucnUwWTATBgcqhkjOPQIBBggqhkjO
PQMBBwNCAATrvRKfk45BIjc+ZIbvrCjo2LH/OEHYwJCbFsOxHy6oOXKjsKdfeG5l
bgCn4kF75zUxOBocqTJkeJ+McFShBrR4o4GwMIGtMAkGA1UdEwQCMAAwLAYJYIZI
AYb4QgENBB8WHU9wZW5TU0wgR2VuZXJhdGVkIENlcnRpZmljYXRlMB0GA1UdDgQW
BBQIyNEiwM3NkokIJz2TI5xNHT4cXTAfBgNVHSMEGDAWgBSvzLhetWNcgdJX+jOC
QRbvdtrlaTAyBggrBgEFBQcBAQQmMCQwIgYIKwYBBQUHMAGGFmh0dHA6Ly9sb2Nh
bGhvc3Q6MTEwMDAwCgYIKoZIzj0EAwIDSAAwRQIgTBgEsA4lZKYsULevHqySTZ4c
Kz16go8E2eTkYzsk/D8CIQCSuOoT5ZA9RU5Tnr6Oj5Ki7J2V7hIGrmd5LSMlYMxN
yA==
-----END CERTIFICATE-----
